target datalayout = "e-m:e-p270:32:32-p271:32:32-p272:64:64-i64:64-i128:128-f80:128-n8:16:32:64-S128"
target triple = "x86_64-pc-linux-gnu"

%"class.open_spiel::solitaire::Card" = type { i32, i32, i32, i8, i32 }
%"class.open_spiel::solitaire::Move" = type { %"class.open_spiel::solitaire::Card", %"class.open_spiel::solitaire::Card" }

@_ZN10open_spiel9solitaire4CardC1EbNS0_8SuitTypeENS0_8RankTypeENS0_12LocationTypeE = unnamed_addr alias void (ptr, i1, i32, i32, i32), ptr @_ZN10open_spiel9solitaire4CardC2EbNS0_8SuitTypeENS0_8RankTypeENS0_12LocationTypeE

; Function Attrs: mustprogress uwtable
define void @_ZN10open_spiel9solitaire4MoveC2ENS0_8RankTypeENS0_8SuitTypeES2_S3_(ptr noundef nonnull align 4 dereferenceable(40) %0, i32 noundef %1, i32 noundef %2, i32 noundef %3, i32 noundef %4) unnamed_addr #4 align 2 {
  %6 = alloca ptr, align 8
  %7 = alloca i32, align 4
  %8 = alloca i32, align 4
  %9 = alloca i32, align 4
  %10 = alloca i32, align 4
  %11 = alloca %"class.open_spiel::solitaire::Card", align 4
  %12 = alloca %"class.open_spiel::solitaire::Card", align 4
  store ptr %0, ptr %6, align 8
  store i32 %1, ptr %7, align 4
  store i32 %2, ptr %8, align 4
  store i32 %3, ptr %9, align 4
  store i32 %4, ptr %10, align 4
  %13 = load ptr, ptr %6, align 8
  %14 = getelementptr inbounds nuw %"class.open_spiel::solitaire::Move", ptr %13, i32 0, i32 0
  call void @_ZN10open_spiel9solitaire4CardC1EbNS0_8SuitTypeENS0_8RankTypeENS0_12LocationTypeE(ptr noundef nonnull align 4 dereferenceable(20) %14, i1 noundef zeroext false, i32 noundef 5, i32 noundef 14, i32 noundef 4)
  %15 = getelementptr inbounds nuw %"class.open_spiel::solitaire::Move", ptr %13, i32 0, i32 1
  call void @_ZN10open_spiel9solitaire4CardC1EbNS0_8SuitTypeENS0_8RankTypeENS0_12LocationTypeE(ptr noundef nonnull align 4 dereferenceable(20) %15, i1 noundef zeroext false, i32 noundef 5, i32 noundef 14, i32 noundef 4)
  %16 = load i32, ptr %8, align 4
  %17 = load i32, ptr %7, align 4
  call void @_ZN10open_spiel9solitaire4CardC1EbNS0_8SuitTypeENS0_8RankTypeENS0_12LocationTypeE(ptr noundef nonnull align 4 dereferenceable(20) %11, i1 noundef zeroext false, i32 noundef %16, i32 noundef %17, i32 noundef 4)
  %18 = getelementptr inbounds nuw %"class.open_spiel::solitaire::Move", ptr %13, i32 0, i32 0
  call void @llvm.memcpy.p0.p0.i64(ptr align 4 %18, ptr align 4 %11, i64 20, i1 false)
  %19 = load i32, ptr %10, align 4
  %20 = load i32, ptr %9, align 4
  call void @_ZN10open_spiel9solitaire4CardC1EbNS0_8SuitTypeENS0_8RankTypeENS0_12LocationTypeE(ptr noundef nonnull align 4 dereferenceable(20) %12, i1 noundef zeroext false, i32 noundef %19, i32 noundef %20, i32 noundef 4)
  %21 = getelementptr inbounds nuw %"class.open_spiel::solitaire::Move", ptr %13, i32 0, i32 1
  call void @llvm.memcpy.p0.p0.i64(ptr align 4 %21, ptr align 4 %12, i64 20, i1 false)
  ret void
}