; Function Attrs: mustprogress uwtable
define void @_ZN10open_spiel9solitaire4MoveC2ENS0_8RankTypeENS0_8SuitTypeES2_S3_(ptr noundef nonnull align 4 dereferenceable(40) %0, i32 noundef %1, i32 noundef %2, i32 noundef %3, i32 noundef %4) unnamed_addr #3 align 2 {
  %6 = alloca %"class.open_spiel::solitaire::Card", align 4
  %7 = alloca %"class.open_spiel::solitaire::Card", align 4
  tail call void @_ZN10open_spiel9solitaire4CardC1EbNS0_8SuitTypeENS0_8RankTypeENS0_12LocationTypeE(ptr noundef nonnull align 4 dereferenceable(20) %0, i1 noundef zeroext false, i32 noundef 5, i32 noundef 14, i32 noundef 4)
  %8 = getelementptr inbounds nuw i8, ptr %0, i64 20
  tail call void @_ZN10open_spiel9solitaire4CardC1EbNS0_8SuitTypeENS0_8RankTypeENS0_12LocationTypeE(ptr noundef nonnull align 4 dereferenceable(20) %8, i1 noundef zeroext false, i32 noundef 5, i32 noundef 14, i32 noundef 4)
  call void @_ZN10open_spiel9solitaire4CardC1EbNS0_8SuitTypeENS0_8RankTypeENS0_12LocationTypeE(ptr noundef nonnull align 4 dereferenceable(20) %6, i1 noundef zeroext false, i32 noundef %2, i32 noundef %1, i32 noundef 4)
  call void @llvm.memcpy.p0.p0.i64(ptr noundef nonnull align 4 dereferenceable(20) %0, ptr noundef nonnull align 4 dereferenceable(20) %6, i64 20, i1 false)
  call void @_ZN10open_spiel9solitaire4CardC1EbNS0_8SuitTypeENS0_8RankTypeENS0_12LocationTypeE(ptr noundef nonnull align 4 dereferenceable(20) %7, i1 noundef zeroext false, i32 noundef %4, i32 noundef %3, i32 noundef 4)
  call void @llvm.memcpy.p0.p0.i64(ptr noundef nonnull align 4 dereferenceable(20) %8, ptr noundef nonnull align 4 dereferenceable(20) %7, i64 20, i1 false)
  ret void
}